; Function Attrs: mustprogress nounwind uwtable
define internal fastcc void @_ZN12_GLOBAL__N_117RegisterCoalescer14coalesceLocalsEv(ptr noundef nonnull align 8 dereferenceable(960) %0) unnamed_addr #0 align 2 {
  %2 = getelementptr inbounds nuw i8, ptr %0, i64 608
  %3 = load ptr, ptr %2, align 8
  %4 = tail call noundef i64 @_ZNK4llvm15SmallVectorBaseIjE4sizeEv(ptr noundef nonnull align 8 dereferenceable(16) %2) #20
  %5 = tail call fastcc noundef zeroext i1 @_ZN12_GLOBAL__N_117RegisterCoalescer20copyCoalesceWorkListEN4llvm15MutableArrayRefIPNS1_12MachineInstrEEE(ptr noundef nonnull align 8 dereferenceable(960) %0, ptr %3, i64 %4)
  %6 = load ptr, ptr %2, align 8
  %7 = tail call noundef i64 @_ZNK4llvm15SmallVectorBaseIjE4sizeEv(ptr noundef nonnull align 8 dereferenceable(16) %2) #20
  %8 = getelementptr inbounds ptr, ptr %6, i64 %7
  %.not11 = icmp eq i64 %7, 0
  br i1 %.not11, label %._crit_edge, label %.lr.ph

.lr.ph:                                           ; preds = %1
  %9 = getelementptr inbounds nuw i8, ptr %0, i64 528
  %10 = getelementptr inbounds i8, ptr %0, i64 544
  br label %11

11:                                               ; preds = %.lr.ph, %24
  %.012 = phi ptr [ %6, %.lr.ph ], [ %25, %24 ]
  %12 = load ptr, ptr %.012, align 8
  %.not10 = icmp eq ptr %12, null
  br i1 %.not10, label %24, label %13

13:                                               ; preds = %11
  %14 = tail call noundef i64 @_ZNK4llvm15SmallVectorBaseIjE4sizeEv(ptr noundef nonnull align 8 dereferenceable(16) %9) #20
  %15 = add i64 %14, 1
  %16 = tail call noundef i64 @_ZNK4llvm15SmallVectorBaseIjE8capacityEv(ptr noundef nonnull align 8 dereferenceable(16) %9) #20
  %.not.i.i.i = icmp ugt i64 %15, %16
  br i1 %.not.i.i.i, label %17, label %_ZN4llvm23SmallVectorTemplateBaseIPNS_12MachineInstrELb1EE9push_backES2_.exit

17:                                               ; preds = %13
  tail call void @_ZN4llvm15SmallVectorBaseIjE8grow_podEPvmm(ptr noundef nonnull align 8 dereferenceable(16) %9, ptr noundef nonnull %10, i64 noundef %15, i64 noundef 8) #20
  br label %_ZN4llvm23SmallVectorTemplateBaseIPNS_12MachineInstrELb1EE9push_backES2_.exit

_ZN4llvm23SmallVectorTemplateBaseIPNS_12MachineInstrELb1EE9push_backES2_.exit: ; preds = %13, %17
  %18 = load ptr, ptr %9, align 8
  %19 = tail call noundef i64 @_ZNK4llvm15SmallVectorBaseIjE4sizeEv(ptr noundef nonnull align 8 dereferenceable(16) %9) #20
  %20 = getelementptr inbounds ptr, ptr %18, i64 %19
  %21 = ptrtoint ptr %12 to i64
  store i64 %21, ptr %20, align 1
  %22 = tail call noundef i64 @_ZNK4llvm15SmallVectorBaseIjE4sizeEv(ptr noundef nonnull align 8 dereferenceable(16) %9) #20
  %23 = add i64 %22, 1
  tail call void @_ZN4llvm15SmallVectorBaseIjE8set_sizeEm(ptr noundef nonnull align 8 dereferenceable(16) %9, i64 noundef %23) #20
  br label %24

24:                                               ; preds = %11, %_ZN4llvm23SmallVectorTemplateBaseIPNS_12MachineInstrELb1EE9push_backES2_.exit
  %25 = getelementptr inbounds i8, ptr %.012, i64 8
  %.not = icmp eq ptr %25, %8
  br i1 %.not, label %._crit_edge, label %11

._crit_edge:                                      ; preds = %24, %1
  %26 = tail call noundef i64 @_ZNK4llvm15SmallVectorBaseIjE4sizeEv(ptr noundef nonnull align 8 dereferenceable(16) %2) #20
  %27 = getelementptr inbounds i8, ptr %0, i64 616
  store i32 0, ptr %27, align 8
  ret void
}